; Function Attrs: nofree norecurse nosync nounwind memory(none) uwtable
define range(i32 0, -1) i32 @If_CluPrimeCudd2(i32 noundef %0) local_unnamed_addr #0 {
  %2 = add i32 %0, -1
  br label %.loopexit

.loopexit:                                        ; preds = %.loopexit.backedge, %1
  %.012 = phi i32 [ %2, %1 ], [ %3, %.loopexit.backedge ]
  %3 = add i32 %.012, 1
  %4 = and i32 %.012, 1
  %.not.not = icmp eq i32 %4, 0
  br i1 %.not.not, label %.preheader, label %.loopexit.backedge

.loopexit.backedge:                               ; preds = %.lr.ph, %.loopexit
  br label %.loopexit, !llvm.loop !3

.preheader:                                       ; preds = %.loopexit
  %.not15 = icmp ult i32 %3, 9
  br i1 %.not15, label %.critedge, label %.lr.ph

5:                                                ; preds = %.lr.ph
  %6 = add nuw nsw i32 %.01116, 2
  %7 = mul nuw nsw i32 %6, %6
  %.not = icmp ugt i32 %7, %3
  br i1 %.not, label %.critedge, label %.lr.ph, !llvm.loop !5

.lr.ph:                                           ; preds = %.preheader, %5
  %.01116 = phi i32 [ %6, %5 ], [ 3, %.preheader ]
  %8 = urem i32 %3, %.01116
  %9 = icmp eq i32 %8, 0
  br i1 %9, label %.loopexit.backedge, label %5, !llvm.loop !3

.critedge:                                        ; preds = %.preheader, %5
  ret i32 %3
}